target datalayout = "e-m:e-p270:32:32-p271:32:32-p272:64:64-i64:64-i128:128-f80:128-n8:16:32:64-S128"
target triple = "x86_64-pc-linux-gnu"

%struct.parameters_ = type { i32, i32, i64, i64, i64, i32, i32, [32 x i64], [32 x i64], [32 x i64], [32 x i32], i64, i64, i32, i32, i32, i32, i64, i64 }

@stderr = external global ptr, align 8
@.str = private unnamed_addr constant [30 x i8] c"Unknown IO type request (%d)\0A\00", align 1
@order = internal global [32 x i32] zeroinitializer, align 16
@buf_offset = internal global [32 x i64] zeroinitializer, align 16
@offset = internal global [32 x i64] zeroinitializer, align 16
@.str.7 = private unnamed_addr constant [45 x i8] c"*** Assertion failed (%s) at line %4d in %s\0A\00", align 1
@.str.9 = private unnamed_addr constant [117 x i8] c"generated/home/dtcxzyw/WorkSpace/Projects/compilers/llvm-opt-benchmark/bench/hdf5/hdf5/tools/src/h5perf/sio_engine.c\00", align 1
@H5_libinit_g = external global i8, align 1
@H5_libterm_g = external global i8, align 1
@buf_p = internal global ptr null, align 8
@h5offset = internal global [32 x i64] zeroinitializer, align 16
@h5dset_space_id = internal global i64 -1, align 8
@h5mem_space_id = internal global i64 -1, align 8
@h5dxpl = internal global i64 -1, align 8
@H5T_NATIVE_UCHAR_g = external global i64, align 8
@h5ds_id = internal global i64 -1, align 8
@.str.39 = private unnamed_addr constant [17 x i8] c"H5Soffset_simple\00", align 1
@.str.46 = private unnamed_addr constant [8 x i8] c"H5Dread\00", align 1

; Function Attrs: nounwind uwtable
define internal i32 @dset_read(i32 noundef %0, ptr noundef %1, ptr noundef %2, ptr noundef %3, ptr noundef %4) #0 {
  %6 = alloca i32, align 4
  %7 = alloca ptr, align 8
  %8 = alloca ptr, align 8
  %9 = alloca ptr, align 8
  %10 = alloca ptr, align 8
  %11 = alloca i32, align 4
  %12 = alloca i64, align 8
  %13 = alloca i32, align 4
  %14 = alloca i32, align 4
  %15 = alloca i32, align 4
  store i32 %0, ptr %6, align 4, !tbaa !11
  store ptr %1, ptr %7, align 8, !tbaa !34
  store ptr %2, ptr %8, align 8, !tbaa !28
  store ptr %3, ptr %9, align 8, !tbaa !34
  store ptr %4, ptr %10, align 8, !tbaa !9
  call void @llvm.lifetime.start.p0(i64 4, ptr %11) #10
  %16 = load i32, ptr %6, align 4, !tbaa !11
  %17 = sext i32 %16 to i64
  %18 = getelementptr inbounds [32 x i32], ptr @order, i64 0, i64 %17
  %19 = load i32, ptr %18, align 4, !tbaa !11
  %20 = sub nsw i32 %19, 1
  store i32 %20, ptr %11, align 4, !tbaa !11
  call void @llvm.lifetime.start.p0(i64 8, ptr %12) #10
  call void @llvm.lifetime.start.p0(i64 4, ptr %13) #10
  call void @llvm.lifetime.start.p0(i64 4, ptr %14) #10
  call void @llvm.lifetime.start.p0(i64 4, ptr %15) #10
  store i32 0, ptr %15, align 4, !tbaa !11
  store i64 0, ptr %12, align 8, !tbaa !22
  br label %21

21:                                               ; preds = %139, %5
  %22 = load i64, ptr %12, align 8, !tbaa !22
  %23 = load ptr, ptr %8, align 8, !tbaa !28
  %24 = getelementptr inbounds nuw %struct.parameters_, ptr %23, i32 0, i32 7
  %25 = load i32, ptr %11, align 4, !tbaa !11
  %26 = sext i32 %25 to i64
  %27 = getelementptr inbounds [32 x i64], ptr %24, i64 0, i64 %26
  %28 = load i64, ptr %27, align 8, !tbaa !22
  %29 = icmp ult i64 %22, %28
  br i1 %29, label %30, label %148

30:                                               ; preds = %21
  %31 = load i64, ptr %12, align 8, !tbaa !22
  %32 = load i32, ptr %11, align 4, !tbaa !11
  %33 = sext i32 %32 to i64
  %34 = getelementptr inbounds [32 x i64], ptr @h5offset, i64 0, i64 %33
  store i64 %31, ptr %34, align 8, !tbaa !22
  %35 = load i64, ptr %12, align 8, !tbaa !22
  %36 = load i32, ptr %11, align 4, !tbaa !11
  %37 = sext i32 %36 to i64
  %38 = getelementptr inbounds [32 x i64], ptr @offset, i64 0, i64 %37
  store i64 %35, ptr %38, align 8, !tbaa !22
  %39 = load i32, ptr %6, align 4, !tbaa !11
  %40 = icmp sgt i32 %39, 0
  br i1 %40, label %41, label %49

41:                                               ; preds = %30
  %42 = load i32, ptr %6, align 4, !tbaa !11
  %43 = sub nsw i32 %42, 1
  %44 = load ptr, ptr %7, align 8, !tbaa !34
  %45 = load ptr, ptr %8, align 8, !tbaa !28
  %46 = load ptr, ptr %9, align 8, !tbaa !34
  %47 = load ptr, ptr %10, align 8, !tbaa !9
  %48 = call i32 @dset_read(i32 noundef %43, ptr noundef %44, ptr noundef %45, ptr noundef %46, ptr noundef %47)
  store i32 %48, ptr %15, align 4, !tbaa !11
  br label %138

49:                                               ; preds = %30
  %50 = load ptr, ptr %8, align 8, !tbaa !28
  %51 = getelementptr inbounds nuw %struct.parameters_, ptr %50, i32 0, i32 0
  %52 = load i32, ptr %51, align 8, !tbaa !13
  switch i32 %52, label %131 [
    i32 0, label %53
    i32 1, label %73
  ]

53:                                               ; preds = %49
  store i32 0, ptr %13, align 4, !tbaa !11
  br label %54

54:                                               ; preds = %64, %53
  %55 = load i32, ptr %13, align 4, !tbaa !11
  %56 = load ptr, ptr %8, align 8, !tbaa !28
  %57 = getelementptr inbounds nuw %struct.parameters_, ptr %56, i32 0, i32 6
  %58 = load i32, ptr %57, align 4, !tbaa !23
  %59 = icmp slt i32 %55, %58
  br i1 %59, label %60, label %67

60:                                               ; preds = %54
  %61 = load i32, ptr %13, align 4, !tbaa !11
  %62 = sext i32 %61 to i64
  %63 = getelementptr inbounds [32 x i64], ptr @buf_offset, i64 0, i64 %62
  store i64 0, ptr %63, align 8, !tbaa !22
  br label %64

64:                                               ; preds = %60
  %65 = load i32, ptr %13, align 4, !tbaa !11
  %66 = add nsw i32 %65, 1
  store i32 %66, ptr %13, align 4, !tbaa !11
  br label %54, !llvm.loop !62

67:                                               ; preds = %54
  %68 = load ptr, ptr %9, align 8, !tbaa !34
  store ptr %68, ptr @buf_p, align 8, !tbaa !9
  %69 = load ptr, ptr %7, align 8, !tbaa !34
  %70 = load ptr, ptr %8, align 8, !tbaa !28
  %71 = load ptr, ptr %9, align 8, !tbaa !34
  %72 = call i32 @posix_buffer_read(i32 noundef 0, ptr noundef %69, ptr noundef %70, ptr noundef %71)
  br label %137

73:                                               ; preds = %49
  %74 = load i64, ptr @h5dset_space_id, align 8, !tbaa !22
  %75 = call i32 @H5Soffset_simple(i64 noundef %74, ptr noundef @h5offset)
  store i32 %75, ptr %14, align 4, !tbaa !11
  br label %76

76:                                               ; preds = %73
  %77 = load i32, ptr %14, align 4, !tbaa !11
  %78 = icmp sge i32 %77, 0
  br i1 %78, label %88, label %79

79:                                               ; preds = %76
  br label %80

80:                                               ; preds = %79
  %81 = load ptr, ptr @stderr, align 8, !tbaa !20
  %82 = call i32 (ptr, ptr, ...) @fprintf(ptr noundef %81, ptr noundef @.str.7, ptr noundef @.str.39, i32 noundef 961, ptr noundef @.str.9) #10
  br label %83

83:                                               ; preds = %80
  br label %84

84:                                               ; preds = %83
  br label %85

85:                                               ; preds = %84
  store i32 -1, ptr %15, align 4, !tbaa !11
  br label %149

86:                                               ; No predecessors!
  br label %87

87:                                               ; preds = %86
  br label %88

88:                                               ; preds = %87, %76
  br label %89

89:                                               ; preds = %88
  br label %90

90:                                               ; preds = %89
  %91 = load i64, ptr @h5ds_id, align 8, !tbaa !22
  %92 = load i8, ptr @H5_libinit_g, align 1, !tbaa !35, !range !37, !noundef !38
  %93 = trunc i8 %92 to i1
  br i1 %93, label %98, label %94

94:                                               ; preds = %90
  %95 = load i8, ptr @H5_libterm_g, align 1, !tbaa !35, !range !37, !noundef !38
  %96 = trunc i8 %95 to i1
  %97 = xor i1 %96, true
  br label %98

98:                                               ; preds = %94, %90
  %99 = phi i1 [ false, %90 ], [ %97, %94 ]
  %100 = xor i1 %99, true
  %101 = xor i1 %100, true
  %102 = zext i1 %101 to i32
  %103 = sext i32 %102 to i64
  %104 = call i64 @llvm.expect.i64(i64 %103, i64 0)
  %105 = icmp ne i64 %104, 0
  br i1 %105, label %106, label %108

106:                                              ; preds = %98
  %107 = call i32 @H5open()
  br label %109

108:                                              ; preds = %98
  br label %109

109:                                              ; preds = %108, %106
  %110 = load i64, ptr @H5T_NATIVE_UCHAR_g, align 8, !tbaa !22
  %111 = load i64, ptr @h5mem_space_id, align 8, !tbaa !22
  %112 = load i64, ptr @h5dset_space_id, align 8, !tbaa !22
  %113 = load i64, ptr @h5dxpl, align 8, !tbaa !22
  %114 = load ptr, ptr %9, align 8, !tbaa !34
  %115 = call i32 @H5Dread(i64 noundef %91, i64 noundef %110, i64 noundef %111, i64 noundef %112, i64 noundef %113, ptr noundef %114)
  store i32 %115, ptr %14, align 4, !tbaa !11
  br label %116

116:                                              ; preds = %109
  %117 = load i32, ptr %14, align 4, !tbaa !11
  %118 = icmp sge i32 %117, 0
  br i1 %118, label %128, label %119

119:                                              ; preds = %116
  br label %120

120:                                              ; preds = %119
  %121 = load ptr, ptr @stderr, align 8, !tbaa !20
  %122 = call i32 (ptr, ptr, ...) @fprintf(ptr noundef %121, ptr noundef @.str.7, ptr noundef @.str.46, i32 noundef 964, ptr noundef @.str.9) #10
  br label %123

123:                                              ; preds = %120
  br label %124

124:                                              ; preds = %123
  br label %125

125:                                              ; preds = %124
  store i32 -1, ptr %15, align 4, !tbaa !11
  br label %149

126:                                              ; No predecessors!
  br label %127

127:                                              ; preds = %126
  br label %128

128:                                              ; preds = %127, %116
  br label %129

129:                                              ; preds = %128
  br label %130

130:                                              ; preds = %129
  br label %137

131:                                              ; preds = %49
  %132 = load ptr, ptr @stderr, align 8, !tbaa !20
  %133 = load ptr, ptr %8, align 8, !tbaa !28
  %134 = getelementptr inbounds nuw %struct.parameters_, ptr %133, i32 0, i32 0
  %135 = load i32, ptr %134, align 8, !tbaa !13
  %136 = call i32 (ptr, ptr, ...) @fprintf(ptr noundef %132, ptr noundef @.str, i32 noundef %135) #10
  br label %137

137:                                              ; preds = %131, %130, %67
  br label %138

138:                                              ; preds = %137, %41
  br label %139

139:                                              ; preds = %138
  %140 = load ptr, ptr %8, align 8, !tbaa !28
  %141 = getelementptr inbounds nuw %struct.parameters_, ptr %140, i32 0, i32 8
  %142 = load i32, ptr %11, align 4, !tbaa !11
  %143 = sext i32 %142 to i64
  %144 = getelementptr inbounds [32 x i64], ptr %141, i64 0, i64 %143
  %145 = load i64, ptr %144, align 8, !tbaa !22
  %146 = load i64, ptr %12, align 8, !tbaa !22
  %147 = add i64 %146, %145
  store i64 %147, ptr %12, align 8, !tbaa !22
  br label %21, !llvm.loop !63

148:                                              ; preds = %21
  br label %149

149:                                              ; preds = %148, %125, %85
  %150 = load i32, ptr %15, align 4, !tbaa !11
  call void @llvm.lifetime.end.p0(i64 4, ptr %15) #10
  call void @llvm.lifetime.end.p0(i64 4, ptr %14) #10
  call void @llvm.lifetime.end.p0(i64 4, ptr %13) #10
  call void @llvm.lifetime.end.p0(i64 8, ptr %12) #10
  call void @llvm.lifetime.end.p0(i64 4, ptr %11) #10
  ret i32 %150
}