; Function Attrs: nounwind uwtable
define internal fastcc range(i32 -1, 1) i32 @dset_read(i32 noundef range(i32 -2147483648, 2147483647) %0, ptr noundef nonnull readonly captures(none) %1, ptr noundef readonly captures(none) %2, ptr noundef nonnull %3) unnamed_addr #0 {
  %5 = sext i32 %0 to i64
  %6 = getelementptr inbounds [32 x i32], ptr @order, i64 0, i64 %5
  %7 = load i32, ptr %6, align 4, !tbaa !19
  %8 = add nsw i32 %7, -1
  %9 = getelementptr inbounds nuw i8, ptr %2, i64 40
  %10 = sext i32 %8 to i64
  %11 = getelementptr inbounds [32 x i64], ptr %9, i64 0, i64 %10
  %12 = load i64, ptr %11, align 8, !tbaa !17
  %.not = icmp eq i64 %12, 0
  br i1 %.not, label %.loopexit, label %.lr.ph7

.lr.ph7:                                          ; preds = %4
  %13 = getelementptr inbounds [32 x i64], ptr @h5offset, i64 0, i64 %10
  %14 = getelementptr inbounds [32 x i64], ptr @offset, i64 0, i64 %10
  %15 = icmp sgt i32 %0, 0
  %16 = getelementptr inbounds nuw i8, ptr %2, i64 36
  %17 = add nsw i32 %0, -1
  %18 = getelementptr inbounds nuw i8, ptr %2, i64 296
  %19 = getelementptr inbounds [32 x i64], ptr %18, i64 0, i64 %10
  br i1 %15, label %.lr.ph7.split.us, label %.lr.ph7.split

.lr.ph7.split.us:                                 ; preds = %.lr.ph7, %.lr.ph7.split.us
  %.0314.us = phi i64 [ %22, %.lr.ph7.split.us ], [ 0, %.lr.ph7 ]
  store i64 %.0314.us, ptr %13, align 8, !tbaa !17
  store i64 %.0314.us, ptr %14, align 8, !tbaa !17
  %20 = tail call fastcc i32 @dset_read(i32 noundef %17, ptr noundef %1, ptr noundef nonnull %2, ptr noundef %3)
  %21 = load i64, ptr %19, align 8, !tbaa !17
  %22 = add i64 %21, %.0314.us
  %23 = load i64, ptr %11, align 8, !tbaa !17
  %24 = icmp ult i64 %22, %23
  br i1 %24, label %.lr.ph7.split.us, label %.loopexit, !llvm.loop !54

.lr.ph7.split:                                    ; preds = %.lr.ph7, %60
  %.0314 = phi i64 [ %62, %60 ], [ 0, %.lr.ph7 ]
  store i64 %.0314, ptr %13, align 8, !tbaa !17
  store i64 %.0314, ptr %14, align 8, !tbaa !17
  %25 = load i32, ptr %2, align 8, !tbaa !4
  switch i32 %25, label %57 [
    i32 0, label %.preheader
    i32 1, label %31
  ]

.preheader:                                       ; preds = %.lr.ph7.split
  %26 = load i32, ptr %16, align 4, !tbaa !18
  %27 = icmp sgt i32 %26, 0
  br i1 %27, label %.lr.ph.preheader, label %._crit_edge

.lr.ph.preheader:                                 ; preds = %.preheader
  %28 = zext nneg i32 %26 to i64
  %29 = shl nuw nsw i64 %28, 3
  tail call void @llvm.memset.p0.i64(ptr nonnull align 16 @buf_offset, i8 0, i64 %29, i1 false), !tbaa !17
  br label %._crit_edge

._crit_edge:                                      ; preds = %.lr.ph.preheader, %.preheader
  store ptr %3, ptr @buf_p, align 8, !tbaa !26
  %30 = tail call fastcc i32 @posix_buffer_read(i32 noundef 0, ptr noundef %1, ptr noundef nonnull %2)
  br label %60

31:                                               ; preds = %.lr.ph7.split
  %32 = load i64, ptr @h5dset_space_id, align 8, !tbaa !17
  %33 = tail call i32 @H5Soffset_simple(i64 noundef %32, ptr noundef nonnull @h5offset) #17
  %34 = icmp sgt i32 %33, -1
  br i1 %34, label %38, label %35

35:                                               ; preds = %31
  %36 = load ptr, ptr @stderr, align 8, !tbaa !11
  %37 = tail call i32 (ptr, ptr, ...) @fprintf(ptr noundef %36, ptr noundef nonnull @.str.7, ptr noundef nonnull @.str.39, i32 noundef 961, ptr noundef nonnull @.str.9) #18
  br label %.loopexit

38:                                               ; preds = %31
  %39 = load i64, ptr @h5ds_id, align 8, !tbaa !17
  %40 = load i8, ptr @H5_libinit_g, align 1, !tbaa !33, !range !35, !noundef !36
  %41 = trunc nuw i8 %40 to i1
  %42 = load i8, ptr @H5_libterm_g, align 1, !range !35
  %43 = trunc nuw i8 %42 to i1
  %44 = select i1 %41, i1 true, i1 %43
  br i1 %44, label %47, label %45, !prof !37

45:                                               ; preds = %38
  %46 = tail call i32 @H5open() #17
  br label %47

47:                                               ; preds = %38, %45
  %48 = load i64, ptr @H5T_NATIVE_UCHAR_g, align 8, !tbaa !17
  %49 = load i64, ptr @h5mem_space_id, align 8, !tbaa !17
  %50 = load i64, ptr @h5dset_space_id, align 8, !tbaa !17
  %51 = load i64, ptr @h5dxpl, align 8, !tbaa !17
  %52 = tail call i32 @H5Dread(i64 noundef %39, i64 noundef %48, i64 noundef %49, i64 noundef %50, i64 noundef %51, ptr noundef nonnull %3) #17
  %53 = icmp sgt i32 %52, -1
  br i1 %53, label %60, label %54

54:                                               ; preds = %47
  %55 = load ptr, ptr @stderr, align 8, !tbaa !11
  %56 = tail call i32 (ptr, ptr, ...) @fprintf(ptr noundef %55, ptr noundef nonnull @.str.7, ptr noundef nonnull @.str.46, i32 noundef 964, ptr noundef nonnull @.str.9) #18
  br label %.loopexit

57:                                               ; preds = %.lr.ph7.split
  %58 = load ptr, ptr @stderr, align 8, !tbaa !11
  %59 = tail call i32 (ptr, ptr, ...) @fprintf(ptr noundef %58, ptr noundef nonnull @.str, i32 noundef %25) #18
  br label %60

60:                                               ; preds = %47, %57, %._crit_edge
  %61 = load i64, ptr %19, align 8, !tbaa !17
  %62 = add i64 %61, %.0314
  %63 = load i64, ptr %11, align 8, !tbaa !17
  %64 = icmp ult i64 %62, %63
  br i1 %64, label %.lr.ph7.split, label %.loopexit, !llvm.loop !54

.loopexit:                                        ; preds = %60, %.lr.ph7.split.us, %4, %54, %35
  %.1 = phi i32 [ -1, %54 ], [ -1, %35 ], [ 0, %4 ], [ %20, %.lr.ph7.split.us ], [ 0, %60 ]
  ret i32 %.1
}